
Symbol table '.dynsym' contains 157 entries:
   Num:    Value          Size Type    Bind   Vis      Ndx Name
     0: 0000000000000000     0 NOTYPE  LOCAL  DEFAULT  UND 
     1: 0000000000004cb0     0 SECTION LOCAL  DEFAULT    9 
     2: 000000000001a420     0 SECTION LOCAL  DEFAULT   22 
     3: 0000000000000000     0 FUNC    GLOBAL DEFAULT  UND _Znam@GLIBCXX_3.4 (2)
     4: 0000000000000000     0 FUNC    GLOBAL DEFAULT  UND memcpy@GLIBC_2.17 (3)
     5: 0000000000000000     0 FUNC    GLOBAL DEFAULT  UND __stack_chk_fail@GLIBC_2.17 (3)
     6: 0000000000000000     0 FUNC    GLOBAL DEFAULT  UND _ZSt17__throw_bad_allocv@GLIBCXX_3.4 (2)
     7: 0000000000000000     0 FUNC    GLOBAL DEFAULT  UND __cxa_begin_catch@CXXABI_1.3 (4)
     8: 0000000000000000     0 OBJECT  GLOBAL DEFAULT  UND __stack_chk_guard@GLIBC_2.17 (5)
     9: 0000000000000000     0 FUNC    GLOBAL DEFAULT  UND _ZSt4endlIcSt11char_traitsIcEERSt13basic_ostreamIT_T0_ES6_@GLIBCXX_3.4 (2)
    10: 0000000000000000     0 FUNC    GLOBAL DEFAULT  UND __assert_fail@GLIBC_2.17 (3)
    11: 0000000000000000     0 FUNC    GLOBAL DEFAULT  UND _ZSt20__throw_length_errorPKc@GLIBCXX_3.4 (2)
    12: 0000000000000000     0 FUNC    WEAK   DEFAULT  UND __cxa_finalize@GLIBC_2.17 (3)
    13: 0000000000000000     0 FUNC    GLOBAL DEFAULT  UND _ZdlPv@GLIBCXX_3.4 (2)
    14: 0000000000000000     0 FUNC    GLOBAL DEFAULT  UND _ZStlsISt11char_traitsIcEERSt13basic_ostreamIcT_ES5_PKc@GLIBCXX_3.4 (2)
    15: 0000000000000000     0 FUNC    GLOBAL DEFAULT  UND _Znwm@GLIBCXX_3.4 (2)
    16: 0000000000000000     0 FUNC    GLOBAL DEFAULT  UND _ZNSolsEPFRSoS_E@GLIBCXX_3.4 (2)
    17: 0000000000000000     0 FUNC    GLOBAL DEFAULT  UND __cxa_atexit@GLIBC_2.17 (3)
    18: 0000000000000000     0 FUNC    GLOBAL DEFAULT  UND memmove@GLIBC_2.17 (3)
    19: 0000000000000000     0 FUNC    GLOBAL DEFAULT  UND __cxa_rethrow@CXXABI_1.3 (4)
    20: 0000000000000000     0 FUNC    GLOBAL DEFAULT  UND _ZNSt8ios_base4InitC1Ev@GLIBCXX_3.4 (2)
    21: 0000000000000000     0 FUNC    GLOBAL DEFAULT  UND __cxa_end_catch@CXXABI_1.3 (4)
    22: 0000000000000000     0 FUNC    GLOBAL DEFAULT  UND __gxx_personality_v0@CXXABI_1.3 (4)
    23: 0000000000000000     0 NOTYPE  WEAK   DEFAULT  UND _ITM_deregisterTMCloneTable
    24: 0000000000000000     0 FUNC    GLOBAL DEFAULT  UND _Unwind_Resume@GCC_3.0 (6)
    25: 0000000000000000     0 NOTYPE  WEAK   DEFAULT  UND __gmon_start__
    26: 0000000000000000     0 NOTYPE  WEAK   DEFAULT  UND _ITM_registerTMCloneTable
    27: 0000000000000000     0 OBJECT  GLOBAL DEFAULT  UND _ZSt4cerr@GLIBCXX_3.4 (2)
    28: 0000000000000000     0 FUNC    GLOBAL DEFAULT  UND _ZNSt8ios_base4InitD1Ev@GLIBCXX_3.4 (2)
    29: 0000000000006528    20 FUNC    WEAK   DEFAULT   11 _ZN9__gnu_cxx13new_allocatorI25NvDsInferInstanceMaskInfoED2Ev
    30: 00000000000074a8    40 FUNC    WEAK   DEFAULT   11 _ZN9__gnu_cxx13new_allocatorI25NvDsInferInstanceMaskInfoE10deallocateEPS1_m
    31: 00000000000073d8    40 FUNC    WEAK   DEFAULT   11 _ZSt8_DestroyIN9__gnu_cxx17__normal_iteratorIP25NvDsInferInstanceMaskInfoSt6vectorIS2_SaIS2_EEEEEvT_S8_
    32: 0000000000007990    20 FUNC    WEAK   DEFAULT   11 _ZNK9__gnu_cxx17__normal_iteratorIPK25NvDsInferInstanceMaskInfoSt6vectorIS1_SaIS1_EEE4baseEv
    33: 0000000000007138   112 FUNC    WEAK   DEFAULT   11 _ZNSt6vectorI25NvDsInferInstanceMaskInfoSaIS0_EE11_S_relocateEPS0_S3_S3_RS1_
    34: 00000000000071a8    20 FUNC    WEAK   DEFAULT   11 _ZNK9__gnu_cxx17__normal_iteratorIP25NvDsInferInstanceMaskInfoSt6vectorIS1_SaIS1_EEE4baseEv
    35: 000000000000653c    60 FUNC    WEAK   DEFAULT   11 _ZNSt12_Vector_baseI25NvDsInferInstanceMaskInfoSaIS0_EE13_M_deallocateEPS0_m
    36: 0000000000005ec4    32 FUNC    WEAK   DEFAULT   11 _ZNSt12_Vector_baseI25NvDsInferInstanceMaskInfoSaIS0_EE12_Vector_implD1Ev
    37: 0000000000005f04    32 FUNC    WEAK   DEFAULT   11 _ZNSt6vectorI25NvDsInferInstanceMaskInfoSaIS0_EEC2Ev
    38: 00000000000076bc    52 FUNC    WEAK   DEFAULT   11 _ZSt13__copy_move_aILb0EPK25NvDsInferInstanceMaskInfoPS0_ET1_T0_S5_S4_
    39: 0000000000005dd4    56 FUNC    GLOBAL DEFAULT   11 NvDsInferParseYoloSeg
    40: 00000000000071bc    80 FUNC    WEAK   DEFAULT   11 _ZSt34__uninitialized_move_if_noexcept_aIP25NvDsInferInstanceMaskInfoS1_SaIS0_EET0_T_S4_S3_RT1_
    41: 0000000000006b0c    44 FUNC    WEAK   DEFAULT   11 _ZNSt6vectorI25NvDsInferInstanceMaskInfoSaIS0_EE5clearEv
    42: 000000000000720c    40 FUNC    WEAK   DEFAULT   11 _ZNSt16allocator_traitsISaI25NvDsInferInstanceMaskInfoEE7destroyIS0_EEvRS1_PT_
    43: 0000000000007270   128 FUNC    WEAK   DEFAULT   11 _ZNSt6vectorI25NvDsInferInstanceMaskInfoSaIS0_EE15_M_erase_at_endEPS0_
    44: 00000000000076f0    72 FUNC    WEAK   DEFAULT   11 _ZSt12__niter_wrapIN9__gnu_cxx17__normal_iteratorIP25NvDsInferInstanceMaskInfoSt6vectorIS2_SaIS2_EEEES3_ET_S8_T0_
    45: 000000000000616c     8 FUNC    WEAK   DEFAULT   11 _ZN9__gnu_cxx14__alloc_traitsISaI25NvDsInferInstanceMaskInfoES1_E27_S_propagate_on_copy_assignEv
    46: 0000000000006bfc   108 FUNC    WEAK   DEFAULT   11 _ZNKSt6vectorI25NvDsInferInstanceMaskInfoSaIS0_EE5beginEv
    47: 000000000000730c    40 FUNC    WEAK   DEFAULT   11 _ZN9__gnu_cxx17__normal_iteratorIPK25NvDsInferInstanceMaskInfoSt6vectorIS1_SaIS1_EEEC1ERKS3_
    48: 0000000000005f4c    32 FUNC    WEAK   DEFAULT   11 _ZNSaI25NvDsInferInstanceMaskInfoED1Ev
    49: 0000000000005ee4    32 FUNC    WEAK   DEFAULT   11 _ZNSt12_Vector_baseI25NvDsInferInstanceMaskInfoSaIS0_EEC1Ev
    50: 0000000000006018    40 FUNC    WEAK   DEFAULT   11 _ZNKSt6vectorIfSaIfEEixEm
    51: 0000000000007c28    72 FUNC    WEAK   DEFAULT   11 _ZSt4copyISt13move_iteratorIP25NvDsInferInstanceMaskInfoES2_ET0_T_S5_S4_
    52: 0000000000006e00    44 FUNC    WEAK   DEFAULT   11 _ZSt8_DestroyIN9__gnu_cxx17__normal_iteratorIP25NvDsInferInstanceMaskInfoSt6vectorIS2_SaIS2_EEEES2_EvT_S8_RSaIT0_E
    53: 0000000000007474    52 FUNC    WEAK   DEFAULT   11 _ZSt18uninitialized_copyIP25NvDsInferInstanceMaskInfoS1_ET0_T_S3_S2_
    54: 0000000000006c68   108 FUNC    WEAK   DEFAULT   11 _ZNKSt6vectorI25NvDsInferInstanceMaskInfoSaIS0_EE3endEv
    55: 0000000000007400    20 FUNC    WEAK   DEFAULT   11 _ZSt12__miter_baseIP25NvDsInferInstanceMaskInfoET_S2_
    56: 0000000000005ec4    32 FUNC    WEAK   DEFAULT   11 _ZNSt12_Vector_baseI25NvDsInferInstanceMaskInfoSaIS0_EE12_Vector_implD2Ev
    57: 0000000000006eb8    48 FUNC    WEAK   DEFAULT   11 _ZNSt16allocator_traitsISaI25NvDsInferInstanceMaskInfoEE10deallocateERS1_PS0_m
    58: 0000000000007798    24 FUNC    WEAK   DEFAULT   11 _ZSt12__niter_wrapIP25NvDsInferInstanceMaskInfoET_RKS2_S2_
    59: 0000000000007100    56 FUNC    WEAK   DEFAULT   11 _ZNSt12_Vector_baseI25NvDsInferInstanceMaskInfoSaIS0_EE11_M_allocateEm
    60: 00000000000074e8    32 FUNC    WEAK   DEFAULT   11 _ZNKSt6vectorI25NvDsInferInstanceMaskInfoSaIS0_EE8max_sizeEv
    61: 0000000000006ea4    20 FUNC    WEAK   DEFAULT   11 _ZN9__gnu_cxx13new_allocatorI25NvDsInferInstanceMaskInfoEC1Ev
    62: 0000000000007234    40 FUNC    WEAK   DEFAULT   11 _ZN9__gnu_cxx17__normal_iteratorIPK18NvDsInferLayerInfoSt6vectorIS1_SaIS1_EEEC1ERKS3_
    63: 0000000000006174     8 FUNC    WEAK   DEFAULT   11 _ZN9__gnu_cxx14__alloc_traitsISaI25NvDsInferInstanceMaskInfoES1_E15_S_always_equalEv
    64: 0000000000007854    92 FUNC    WEAK   DEFAULT   11 _ZN9__gnu_cxx13new_allocatorI25NvDsInferInstanceMaskInfoE8allocateEmPKv
    65: 0000000000005fc8    80 FUNC    WEAK   DEFAULT   11 _ZNSt6vectorI25NvDsInferInstanceMaskInfoSaIS0_EED1Ev
    66: 0000000000007750    20 FUNC    WEAK   DEFAULT   11 _ZSt12__niter_baseIP25NvDsInferInstanceMaskInfoET_S2_
    67: 0000000000007364    20 FUNC    WEAK   DEFAULT   11 _ZSt12__miter_baseIN9__gnu_cxx17__normal_iteratorIPK25NvDsInferInstanceMaskInfoSt6vectorIS2_SaIS2_EEEEET_S9_
    68: 00000000000077dc   120 FUNC    WEAK   DEFAULT   11 _ZNSt6vectorI25NvDsInferInstanceMaskInfoSaIS0_EE11_S_max_sizeERKS1_
    69: 0000000000007508    56 FUNC    WEAK   DEFAULT   11 _ZSt3maxImERKT_S2_S2_
    70: 0000000000007bb4    44 FUNC    WEAK   DEFAULT   11 _ZNSt20__uninitialized_copyILb1EE13__uninit_copyISt13move_iteratorIP25NvDsInferInstanceMaskInfoES4_EET0_T_S7_S6_
    71: 0000000000006db8    72 FUNC    WEAK   DEFAULT   11 _ZSt4copyIN9__gnu_cxx17__normal_iteratorIPK25NvDsInferInstanceMaskInfoSt6vectorIS2_SaIS2_EEEENS1_IPS2_S7_EEET0_T_SC_SB_
    72: 0000000000005720    56 FUNC    WEAK   DEFAULT   11 _ZSt3minIfERKT_S2_S2_
    73: 00000000000078b0    92 FUNC    WEAK   DEFAULT   11 _ZSt12__relocate_aIP25NvDsInferInstanceMaskInfoS1_SaIS0_EET0_T_S4_S3_RT1_
    74: 00000000000066ac    20 FUNC    WEAK   DEFAULT   11 _ZNSt6vectorI25NvDsInferInstanceMaskInfoSaIS0_EE19_S_nothrow_relocateESt17integral_constantIbLb1EE
    75: 00000000000075a0    96 FUNC    WEAK   DEFAULT   11 _ZSt32__make_move_if_noexcept_iteratorI25NvDsInferInstanceMaskInfoSt13move_iteratorIPS0_EET0_PT_
    76: 0000000000006cd4   132 FUNC    WEAK   DEFAULT   11 _ZNSt6vectorI25NvDsInferInstanceMaskInfoSaIS0_EE20_M_allocate_and_copyIN9__gnu_cxx17__normal_iteratorIPKS0_S2_EEEEPS0_mT_SA_
    77: 0000000000006654    88 FUNC    WEAK   DEFAULT   11 _ZNSt6vectorI25NvDsInferInstanceMaskInfoSaIS0_EE15_S_use_relocateEv
    78: 00000000000064fc    44 FUNC    WEAK   DEFAULT   11 _ZNSt12_Vector_baseI25NvDsInferInstanceMaskInfoSaIS0_EE17_Vector_impl_dataC1Ev
    79: 0000000000007be0    72 FUNC    WEAK   DEFAULT   11 _ZSt4copyIN9__gnu_cxx17__normal_iteratorIPK25NvDsInferInstanceMaskInfoSt6vectorIS2_SaIS2_EEEEPS2_ET0_T_SB_SA_
    80: 0000000000007964    44 FUNC    WEAK   DEFAULT   11 _ZNSt20__uninitialized_copyILb1EE13__uninit_copyIN9__gnu_cxx17__normal_iteratorIPK25NvDsInferInstanceMaskInfoSt6vectorIS4_SaIS4_EEEEPS4_EET0_T_SD_SC_
    81: 0000000000006b94    52 FUNC    WEAK   DEFAULT   11 _ZNKSt6vectorI25NvDsInferInstanceMaskInfoSaIS0_EE4sizeEv
    82: 000000000000658c    44 FUNC    WEAK   DEFAULT   11 _ZSt8_DestroyIP25NvDsInferInstanceMaskInfoS0_EvT_S2_RSaIT0_E
    83: 00000000000074d0    24 FUNC    WEAK   DEFAULT   11 _ZNSt12_Destroy_auxILb1EE9__destroyIP25NvDsInferInstanceMaskInfoEEvT_S4_
    84: 0000000000006f84    40 FUNC    WEAK   DEFAULT   11 _ZN9__gnu_cxx17__normal_iteratorIP25NvDsInferInstanceMaskInfoSt6vectorIS1_SaIS1_EEEC2ERKS2_
    85: 0000000000007cd0    32 FUNC    WEAK   DEFAULT   11 _ZSt12__miter_baseIP25NvDsInferInstanceMaskInfoEDTcl12__miter_basecldtfp_4baseEEESt13move_iteratorIT_E
    86: 0000000000005f4c    32 FUNC    WEAK   DEFAULT   11 _ZNSaI25NvDsInferInstanceMaskInfoED2Ev
    87: 0000000000005ee4    32 FUNC    WEAK   DEFAULT   11 _ZNSt12_Vector_baseI25NvDsInferInstanceMaskInfoSaIS0_EEC2Ev
    88: 000000000000767c    32 FUNC    WEAK   DEFAULT   11 _ZSt12__niter_baseIPK25NvDsInferInstanceMaskInfoSt6vectorIS0_SaIS0_EEET_N9__gnu_cxx17__normal_iteratorIS6_T0_EE
    89: 000000000000790c    36 FUNC    WEAK   DEFAULT   11 _ZNSt13move_iteratorIP25NvDsInferInstanceMaskInfoEC2ES1_
    90: 0000000000007a30   136 FUNC    WEAK   DEFAULT   11 _ZNK9__gnu_cxx17__normal_iteratorIP25NvDsInferInstanceMaskInfoSt6vectorIS1_SaIS1_EEEplEl
    91: 000000000000790c    36 FUNC    WEAK   DEFAULT   11 _ZNSt13move_iteratorIP25NvDsInferInstanceMaskInfoEC1ES1_
    92: 0000000000006f24    96 FUNC    WEAK   DEFAULT   11 _ZN9__gnu_cxx13new_allocatorI25NvDsInferInstanceMaskInfoE9constructIS1_JRKS1_EEEvPT_DpOT0_
    93: 0000000000007540    40 FUNC    WEAK   DEFAULT   11 _ZNSt16allocator_traitsISaI25NvDsInferInstanceMaskInfoEE8allocateERS1_m
    94: 0000000000006ea4    20 FUNC    WEAK   DEFAULT   11 _ZN9__gnu_cxx13new_allocatorI25NvDsInferInstanceMaskInfoEC2Ev
    95: 00000000000079a4   140 FUNC    WEAK   DEFAULT   11 _ZNSt11__copy_moveILb0ELb1ESt26random_access_iterator_tagE8__copy_mI25NvDsInferInstanceMaskInfoEEPT_PKS4_S7_S5_
    96: 0000000000005fc8    80 FUNC    WEAK   DEFAULT   11 _ZNSt6vectorI25NvDsInferInstanceMaskInfoSaIS0_EED2Ev
    97: 0000000000005eac    24 FUNC    WEAK   DEFAULT   11 _ZnwmPv
    98: 0000000000007334    48 FUNC    WEAK   DEFAULT   11 _ZSt22__uninitialized_copy_aIN9__gnu_cxx17__normal_iteratorIPK25NvDsInferInstanceMaskInfoSt6vectorIS2_SaIS2_EEEEPS2_S2_ET0_T_SB_SA_RSaIT1_E
    99: 0000000000006138    52 FUNC    WEAK   DEFAULT   11 _ZNKSt6vectorI18NvDsInferLayerInfoSaIS0_EEixEm
   100: 0000000000007d68    52 FUNC    WEAK   DEFAULT   11 _ZSt13__copy_move_aILb1EP25NvDsInferInstanceMaskInfoS1_ET1_T0_S3_S2_
   101: 0000000000006ae0    20 FUNC    WEAK   DEFAULT   11 _ZNKSt12_Vector_baseI25NvDsInferInstanceMaskInfoSaIS0_EE19_M_get_Tp_allocatorEv
   102: 0000000000005f24    40 FUNC    WEAK   DEFAULT   11 _ZNSt12_Vector_baseI25NvDsInferInstanceMaskInfoSaIS0_EE12_Vector_implC1Ev
   103: 00000000000072f0    28 FUNC    WEAK   DEFAULT   11 _ZSt18__do_alloc_on_copyISaI25NvDsInferInstanceMaskInfoEEvRT_RKS2_St17integral_constantIbLb0EE
   104: 00000000000077b0    44 FUNC    WEAK   DEFAULT   11 _ZNSt20__uninitialized_copyILb1EE13__uninit_copyIP25NvDsInferInstanceMaskInfoS3_EET0_T_S5_S4_
   105: 0000000000007738    24 FUNC    WEAK   DEFAULT   11 _ZNSt12_Destroy_auxILb1EE9__destroyIN9__gnu_cxx17__normal_iteratorIP25NvDsInferInstanceMaskInfoSt6vectorIS4_SaIS4_EEEEEEvT_SA_
   106: 000000000000725c    20 FUNC    WEAK   DEFAULT   11 _ZNK9__gnu_cxx17__normal_iteratorIPK18NvDsInferLayerInfoSt6vectorIS1_SaIS1_EEE4baseEv
   107: 0000000000005604   104 FUNC    GLOBAL DEFAULT   11 _Z5clampfff
   108: 0000000000006bc8    52 FUNC    WEAK   DEFAULT   11 _ZNKSt6vectorI25NvDsInferInstanceMaskInfoSaIS0_EE8capacityEv
   109: 00000000000065b8    56 FUNC    WEAK   DEFAULT   11 _ZNSt16allocator_traitsISaI25NvDsInferInstanceMaskInfoEE9constructIS0_JRKS0_EEEvRS1_PT_DpOT0_
   110: 00000000000066c0   772 FUNC    WEAK   DEFAULT   11 _ZNSt6vectorI25NvDsInferInstanceMaskInfoSaIS0_EE17_M_realloc_insertIJRKS0_EEEvN9__gnu_cxx17__normal_iteratorIPS0_S2_EEDpOT_
   111: 00000000000064fc    44 FUNC    WEAK   DEFAULT   11 _ZNSt12_Vector_baseI25NvDsInferInstanceMaskInfoSaIS0_EE17_Vector_impl_dataC2Ev
   112: 0000000000007d50    24 FUNC    WEAK   DEFAULT   11 _ZNKSt13move_iteratorIP25NvDsInferInstanceMaskInfoE4baseEv
   113: 0000000000006a30   108 FUNC    WEAK   DEFAULT   11 _ZNKSt6vectorI18NvDsInferLayerInfoSaIS0_EE3endEv
   114: 0000000000007414    96 FUNC    WEAK   DEFAULT   11 _ZSt14__copy_move_a2ILb0EP25NvDsInferInstanceMaskInfoS1_ET1_T0_S3_S2_
   115: 0000000000007d9c   140 FUNC    WEAK   DEFAULT   11 _ZNSt11__copy_moveILb1ELb1ESt26random_access_iterator_tagE8__copy_mI25NvDsInferInstanceMaskInfoEEPT_PKS4_S7_S5_
   116: 0000000000007cf0    96 FUNC    WEAK   DEFAULT   11 _ZSt14__copy_move_a2ILb1EP25NvDsInferInstanceMaskInfoS1_ET1_T0_S3_S2_
   117: 0000000000006d58    96 FUNC    WEAK   DEFAULT   11 _ZNSt6vectorI25NvDsInferInstanceMaskInfoSaIS0_EE5beginEv
   118: 0000000000006f84    40 FUNC    WEAK   DEFAULT   11 _ZN9__gnu_cxx17__normal_iteratorIP25NvDsInferInstanceMaskInfoSt6vectorIS1_SaIS1_EEEC1ERKS2_
   119: 00000000000070b4    76 FUNC    WEAK   DEFAULT   11 _ZN9__gnu_cxxmiIP25NvDsInferInstanceMaskInfoSt6vectorIS1_SaIS1_EEEENS_17__normal_iteratorIT_T0_E15difference_typeERKS9_SC_
   120: 0000000000006ee8    40 FUNC    WEAK   DEFAULT   11 _ZSt8_DestroyIP25NvDsInferInstanceMaskInfoEvT_S2_
   121: 0000000000007648    52 FUNC    WEAK   DEFAULT   11 _ZSt18uninitialized_copyIN9__gnu_cxx17__normal_iteratorIPK25NvDsInferInstanceMaskInfoSt6vectorIS2_SaIS2_EEEEPS2_ET0_T_SB_SA_
   122: 0000000000006e74    48 FUNC    WEAK   DEFAULT   11 _ZSt22__uninitialized_copy_aIP25NvDsInferInstanceMaskInfoS1_S0_ET0_T_S3_S2_RSaIT1_E
   123: 00000000000065f0   100 FUNC    WEAK   DEFAULT   11 _ZNSt6vectorI25NvDsInferInstanceMaskInfoSaIS0_EE3endEv
   124: 0000000000007234    40 FUNC    WEAK   DEFAULT   11 _ZN9__gnu_cxx17__normal_iteratorIPK18NvDsInferLayerInfoSt6vectorIS1_SaIS1_EEEC2ERKS3_
   125: 0000000000007378    96 FUNC    WEAK   DEFAULT   11 _ZSt14__copy_move_a2ILb0EN9__gnu_cxx17__normal_iteratorIPK25NvDsInferInstanceMaskInfoSt6vectorIS2_SaIS2_EEEENS1_IPS2_S7_EEET1_T0_SC_SB_
   126: 0000000000005f6c    92 FUNC    WEAK   DEFAULT   11 _ZNSt12_Vector_baseI25NvDsInferInstanceMaskInfoSaIS0_EED1Ev
   127: 00000000000056e8    56 FUNC    WEAK   DEFAULT   11 _ZSt3maxIfERKT_S2_S2_
   128: 0000000000007b0c    24 FUNC    WEAK   DEFAULT   11 _ZNK9__gnu_cxx13new_allocatorI25NvDsInferInstanceMaskInfoE8max_sizeEv
   129: 0000000000006040   128 FUNC    WEAK   DEFAULT   11 _ZNSt6vectorI25NvDsInferInstanceMaskInfoSaIS0_EE9push_backERKS0_
   130: 0000000000006f10    20 FUNC    WEAK   DEFAULT   11 _ZSt7forwardIRK25NvDsInferInstanceMaskInfoEOT_RNSt16remove_referenceIS3_E4typeE
   131: 0000000000007930    52 FUNC    WEAK   DEFAULT   11 _ZSt18uninitialized_copyISt13move_iteratorIP25NvDsInferInstanceMaskInfoES2_ET0_T_S5_S4_
   132: 00000000000064dc    32 FUNC    WEAK   DEFAULT   11 _ZNSaI25NvDsInferInstanceMaskInfoEC1Ev
   133: 0000000000006578    20 FUNC    WEAK   DEFAULT   11 _ZNSt12_Vector_baseI25NvDsInferInstanceMaskInfoSaIS0_EE19_M_get_Tp_allocatorEv
   134: 0000000000006528    20 FUNC    WEAK   DEFAULT   11 _ZN9__gnu_cxx13new_allocatorI25NvDsInferInstanceMaskInfoED1Ev
   135: 0000000000007b24   144 FUNC    WEAK   DEFAULT   11 _ZSt14__relocate_a_1I25NvDsInferInstanceMaskInfoS0_ENSt9enable_ifIXsrSt24__is_bitwise_relocatableIT_vE5valueEPS3_E4typeES5_S5_S5_RSaIT0_E
   136: 0000000000005f24    40 FUNC    WEAK   DEFAULT   11 _ZNSt12_Vector_baseI25NvDsInferInstanceMaskInfoSaIS0_EE12_Vector_implC2Ev
   137: 00000000000060c0   120 FUNC    WEAK   DEFAULT   11 _ZNKSt6vectorI18NvDsInferLayerInfoSaIS0_EE5emptyEv
   138: 0000000000007630    24 FUNC    WEAK   DEFAULT   11 _ZN9__gnu_cxx13new_allocatorI25NvDsInferInstanceMaskInfoE7destroyIS1_EEvPT_
   139: 000000000000769c    32 FUNC    WEAK   DEFAULT   11 _ZSt12__niter_baseIP25NvDsInferInstanceMaskInfoSt6vectorIS0_SaIS0_EEET_N9__gnu_cxx17__normal_iteratorIS5_T0_EE
   140: 00000000000069c4   108 FUNC    WEAK   DEFAULT   11 _ZNKSt6vectorI18NvDsInferLayerInfoSaIS0_EE5beginEv
   141: 0000000000005f04    32 FUNC    WEAK   DEFAULT   11 _ZNSt6vectorI25NvDsInferInstanceMaskInfoSaIS0_EEC1Ev
   142: 0000000000007ab8    28 FUNC    WEAK   DEFAULT   11 _ZNSt16allocator_traitsISaI25NvDsInferInstanceMaskInfoEE8max_sizeERKS1_
   143: 0000000000006a9c    68 FUNC    WEAK   DEFAULT   11 _ZN9__gnu_cxxeqIPK18NvDsInferLayerInfoSt6vectorIS1_SaIS1_EEEEbRKNS_17__normal_iteratorIT_T0_EESC_
   144: 0000000000006b38    92 FUNC    WEAK   DEFAULT   11 _ZSt15__alloc_on_copyISaI25NvDsInferInstanceMaskInfoEEvRT_RKS2_
   145: 0000000000007568    56 FUNC    WEAK   DEFAULT   11 _ZNSt6vectorI25NvDsInferInstanceMaskInfoSaIS0_EE14_S_do_relocateEPS0_S3_S3_RS1_St17integral_constantIbLb1EE
   146: 0000000000007764    52 FUNC    WEAK   DEFAULT   11 _ZSt13__copy_move_aILb0EP25NvDsInferInstanceMaskInfoS1_ET1_T0_S3_S2_
   147: 0000000000005f6c    92 FUNC    WEAK   DEFAULT   11 _ZNSt12_Vector_baseI25NvDsInferInstanceMaskInfoSaIS0_EED2Ev
   148: 0000000000006af4    24 FUNC    WEAK   DEFAULT   11 _ZStneRKSaI25NvDsInferInstanceMaskInfoES2_
   149: 0000000000006fac   264 FUNC    WEAK   DEFAULT   11 _ZNKSt6vectorI25NvDsInferInstanceMaskInfoSaIS0_EE12_M_check_lenEmPKc
   150: 0000000000007c70    96 FUNC    WEAK   DEFAULT   11 _ZSt14__copy_move_a2ILb0EN9__gnu_cxx17__normal_iteratorIPK25NvDsInferInstanceMaskInfoSt6vectorIS2_SaIS2_EEEEPS2_ET1_T0_SB_SA_
   151: 0000000000007ad4    56 FUNC    WEAK   DEFAULT   11 _ZSt3minImERKT_S2_S2_
   152: 00000000000064dc    32 FUNC    WEAK   DEFAULT   11 _ZNSaI25NvDsInferInstanceMaskInfoEC2Ev
   153: 000000000000617c   864 FUNC    WEAK   DEFAULT   11 _ZNSt6vectorI25NvDsInferInstanceMaskInfoSaIS0_EEaSERKS2_
   154: 0000000000006e2c    72 FUNC    WEAK   DEFAULT   11 _ZSt4copyIP25NvDsInferInstanceMaskInfoS1_ET0_T_S3_S2_
   155: 0000000000007600    48 FUNC    WEAK   DEFAULT   11 _ZSt22__uninitialized_copy_aISt13move_iteratorIP25NvDsInferInstanceMaskInfoES2_S1_ET0_T_S5_S4_RSaIT1_E
   156: 000000000000730c    40 FUNC    WEAK   DEFAULT   11 _ZN9__gnu_cxx17__normal_iteratorIPK25NvDsInferInstanceMaskInfoSt6vectorIS1_SaIS1_EEEC2ERKS3_

Symbol table '.symtab' contains 353 entries:
   Num:    Value          Size Type    Bind   Vis      Ndx Name
     0: 0000000000000000     0 NOTYPE  LOCAL  DEFAULT  UND 
     1: 00000000000001c8     0 SECTION LOCAL  DEFAULT    1 
     2: 00000000000001f0     0 SECTION LOCAL  DEFAULT    2 
     3: 0000000000000608     0 SECTION LOCAL  DEFAULT    3 
     4: 00000000000014c0     0 SECTION LOCAL  DEFAULT    4 
     5: 0000000000003d18     0 SECTION LOCAL  DEFAULT    5 
     6: 0000000000003e58     0 SECTION LOCAL  DEFAULT    6 
     7: 0000000000003ee8     0 SECTION LOCAL  DEFAULT    7 
     8: 0000000000004050     0 SECTION LOCAL  DEFAULT    8 
     9: 0000000000004cb0     0 SECTION LOCAL  DEFAULT    9 
    10: 0000000000004cd0     0 SECTION LOCAL  DEFAULT   10 
    11: 0000000000005530     0 SECTION LOCAL  DEFAULT   11 
    12: 0000000000007e28     0 SECTION LOCAL  DEFAULT   12 
    13: 0000000000007e38     0 SECTION LOCAL  DEFAULT   13 
    14: 0000000000007eec     0 SECTION LOCAL  DEFAULT   14 
    15: 00000000000082e8     0 SECTION LOCAL  DEFAULT   15 
    16: 0000000000009214     0 SECTION LOCAL  DEFAULT   16 
    17: 0000000000019d88     0 SECTION LOCAL  DEFAULT   17 
    18: 0000000000019da0     0 SECTION LOCAL  DEFAULT   18 
    19: 0000000000019da8     0 SECTION LOCAL  DEFAULT   19 
    20: 0000000000019f98     0 SECTION LOCAL  DEFAULT   20 
    21: 0000000000019fe8     0 SECTION LOCAL  DEFAULT   21 
    22: 000000000001a420     0 SECTION LOCAL  DEFAULT   22 
    23: 000000000001a430     0 SECTION LOCAL  DEFAULT   23 
    24: 0000000000000000     0 SECTION LOCAL  DEFAULT   24 
    25: 0000000000000000     0 FILE    LOCAL  DEFAULT  ABS /usr/lib/gcc/aarch64-linux-gnu/9/../../../aarch64-linux-gnu/crti.o
    26: 0000000000005530     0 NOTYPE  LOCAL  DEFAULT   11 $x
    27: 0000000000005530    20 FUNC    LOCAL  DEFAULT   11 call_weak_fn
    28: 0000000000004cb0     0 NOTYPE  LOCAL  DEFAULT    9 $x
    29: 0000000000007e28     0 NOTYPE  LOCAL  DEFAULT   12 $x
    30: 0000000000000000     0 FILE    LOCAL  DEFAULT  ABS /usr/lib/gcc/aarch64-linux-gnu/9/../../../aarch64-linux-gnu/crtn.o
    31: 0000000000004cbc     0 NOTYPE  LOCAL  DEFAULT    9 $x
    32: 0000000000007e30     0 NOTYPE  LOCAL  DEFAULT   12 $x
    33: 0000000000000000     0 FILE    LOCAL  DEFAULT  ABS crtstuff.c
    34: 0000000000005548     0 NOTYPE  LOCAL  DEFAULT   11 $x
    35: 0000000000005548     0 FUNC    LOCAL  DEFAULT   11 deregister_tm_clones
    36: 0000000000005578     0 FUNC    LOCAL  DEFAULT   11 register_tm_clones
    37: 000000000001a420     0 NOTYPE  LOCAL  DEFAULT   22 $d
    38: 00000000000055b8     0 FUNC    LOCAL  DEFAULT   11 __do_global_dtors_aux
    39: 000000000001a430     1 OBJECT  LOCAL  DEFAULT   23 completed.9189
    40: 0000000000019da0     0 NOTYPE  LOCAL  DEFAULT   18 $d
    41: 0000000000019da0     0 OBJECT  LOCAL  DEFAULT   18 __do_global_dtors_aux_fini_array_entry
    42: 0000000000005600     0 FUNC    LOCAL  DEFAULT   11 frame_dummy
    43: 0000000000019d88     0 NOTYPE  LOCAL  DEFAULT   17 $d
    44: 0000000000019d88     0 OBJECT  LOCAL  DEFAULT   17 __frame_dummy_init_array_entry
    45: 00000000000082fc     0 NOTYPE  LOCAL  DEFAULT   15 $d
    46: 000000000001a430     0 NOTYPE  LOCAL  DEFAULT   23 $d
    47: 0000000000000000     0 FILE    LOCAL  DEFAULT  ABS utils.cpp
    48: 0000000000007e38     0 NOTYPE  LOCAL  DEFAULT   13 $d
    49: 0000000000007e38     1 OBJECT  LOCAL  DEFAULT   13 _ZStL19piecewise_construct
    50: 000000000001a438     1 OBJECT  LOCAL  DEFAULT   23 _ZStL8__ioinit
    51: 000000000001a438     0 NOTYPE  LOCAL  DEFAULT   23 $d
    52: 0000000000005604     0 NOTYPE  LOCAL  DEFAULT   11 $x
    53: 00000000000056e8     0 NOTYPE  LOCAL  DEFAULT   11 $x
    54: 0000000000005720     0 NOTYPE  LOCAL  DEFAULT   11 $x
    55: 000000000000566c    96 FUNC    LOCAL  DEFAULT   11 _Z41__static_initialization_and_destruction_0ii
    56: 00000000000056cc    28 FUNC    LOCAL  DEFAULT   11 _GLOBAL__sub_I_utils.cpp
    57: 0000000000019d90     0 NOTYPE  LOCAL  DEFAULT   17 $d
    58: 0000000000008360     0 NOTYPE  LOCAL  DEFAULT   15 $d
    59: 0000000000000000     0 FILE    LOCAL  DEFAULT  ABS nvdsparseseg_Yolo.cpp
    60: 0000000000007e90     0 NOTYPE  LOCAL  DEFAULT   13 $d
    61: 0000000000007e90     1 OBJECT  LOCAL  DEFAULT   13 _ZStL19piecewise_construct
    62: 0000000000005eac     0 NOTYPE  LOCAL  DEFAULT   11 $x
    63: 0000000000007e94     4 OBJECT  LOCAL  DEFAULT   13 _ZN8nvinfer1L25kNV_TENSORRT_VERSION_IMPLE
    64: 000000000001a440     1 OBJECT  LOCAL  DEFAULT   23 _ZStL8__ioinit
    65: 000000000001a440     0 NOTYPE  LOCAL  DEFAULT   23 $d
    66: 0000000000005758     0 NOTYPE  LOCAL  DEFAULT   11 $x
    67: 0000000000005758   256 FUNC    LOCAL  DEFAULT   11 _ZL14addSegProposalPKfRKjS2_S2_R25NvDsInferInstanceMaskInfo
    68: 0000000000005858   412 FUNC    LOCAL  DEFAULT   11 _ZL15addBBoxProposalRKfS0_S0_S0_RKjS2_RKiS0_R25NvDsInferInstanceMaskInfo
    69: 0000000000005ec4     0 NOTYPE  LOCAL  DEFAULT   11 $x
    70: 0000000000005ee4     0 NOTYPE  LOCAL  DEFAULT   11 $x
    71: 0000000000005f04     0 NOTYPE  LOCAL  DEFAULT   11 $x
    72: 00000000000059f4   572 FUNC    LOCAL  DEFAULT   11 _ZL19decodeTensorYoloSegPKfS0_S0_S0_RKjS2_S2_S2_S2_RKSt6vectorIfSaIfEE
    73: 0000000000005c30   420 FUNC    LOCAL  DEFAULT   11 _ZL27NvDsInferParseCustomYoloSegRKSt6vectorI18NvDsInferLayerInfoSaIS0_EERK20NvDsInferNetworkInfoRK29NvDsInferParseDetectionParamsRS_I25NvDsInferInstanceMaskInfoSaISB_EE
    74: 0000000000005e0c    36 FUNC    LOCAL  DEFAULT   11 _ZL31checkFunc_NvDsInferParseYoloSegPFbRKSt6vectorI18NvDsInferLayerInfoSaIS0_EERK20NvDsInferNetworkInfoRK29NvDsInferParseDetectionParamsRS_I25NvDsInferInstanceMaskInfoSaISB_EEE
    75: 0000000000005f24     0 NOTYPE  LOCAL  DEFAULT   11 $x
    76: 0000000000005f4c     0 NOTYPE  LOCAL  DEFAULT   11 $x
    77: 0000000000005f6c     0 NOTYPE  LOCAL  DEFAULT   11 $x
    78: 0000000000005fc8     0 NOTYPE  LOCAL  DEFAULT   11 $x
    79: 0000000000006018     0 NOTYPE  LOCAL  DEFAULT   11 $x
    80: 0000000000006040     0 NOTYPE  LOCAL  DEFAULT   11 $x
    81: 00000000000060c0     0 NOTYPE  LOCAL  DEFAULT   11 $x
    82: 0000000000006138     0 NOTYPE  LOCAL  DEFAULT   11 $x
    83: 000000000000616c     0 NOTYPE  LOCAL  DEFAULT   11 $x
    84: 0000000000006174     0 NOTYPE  LOCAL  DEFAULT   11 $x
    85: 000000000000617c     0 NOTYPE  LOCAL  DEFAULT   11 $x
    86: 00000000000064dc     0 NOTYPE  LOCAL  DEFAULT   11 $x
    87: 00000000000064fc     0 NOTYPE  LOCAL  DEFAULT   11 $x
    88: 0000000000006528     0 NOTYPE  LOCAL  DEFAULT   11 $x
    89: 000000000000653c     0 NOTYPE  LOCAL  DEFAULT   11 $x
    90: 0000000000006578     0 NOTYPE  LOCAL  DEFAULT   11 $x
    91: 000000000000658c     0 NOTYPE  LOCAL  DEFAULT   11 $x
    92: 00000000000065b8     0 NOTYPE  LOCAL  DEFAULT   11 $x
    93: 00000000000065f0     0 NOTYPE  LOCAL  DEFAULT   11 $x
    94: 0000000000006654     0 NOTYPE  LOCAL  DEFAULT   11 $x
    95: 00000000000066ac     0 NOTYPE  LOCAL  DEFAULT   11 $x
    96: 00000000000066c0     0 NOTYPE  LOCAL  DEFAULT   11 $x
    97: 000000000000923f     0 NOTYPE  LOCAL  DEFAULT   16 $d
    98: 00000000000069c4     0 NOTYPE  LOCAL  DEFAULT   11 $x
    99: 0000000000006a30     0 NOTYPE  LOCAL  DEFAULT   11 $x
   100: 0000000000006a9c     0 NOTYPE  LOCAL  DEFAULT   11 $x
   101: 0000000000006ae0     0 NOTYPE  LOCAL  DEFAULT   11 $x
   102: 0000000000006af4     0 NOTYPE  LOCAL  DEFAULT   11 $x
   103: 0000000000006b0c     0 NOTYPE  LOCAL  DEFAULT   11 $x
   104: 0000000000006b38     0 NOTYPE  LOCAL  DEFAULT   11 $x
   105: 0000000000006b94     0 NOTYPE  LOCAL  DEFAULT   11 $x
   106: 0000000000006bc8     0 NOTYPE  LOCAL  DEFAULT   11 $x
   107: 0000000000006bfc     0 NOTYPE  LOCAL  DEFAULT   11 $x
   108: 0000000000006c68     0 NOTYPE  LOCAL  DEFAULT   11 $x
   109: 0000000000006cd4     0 NOTYPE  LOCAL  DEFAULT   11 $x
   110: 0000000000006d58     0 NOTYPE  LOCAL  DEFAULT   11 $x
   111: 0000000000006db8     0 NOTYPE  LOCAL  DEFAULT   11 $x
   112: 0000000000006e00     0 NOTYPE  LOCAL  DEFAULT   11 $x
   113: 0000000000006e2c     0 NOTYPE  LOCAL  DEFAULT   11 $x
   114: 0000000000006e74     0 NOTYPE  LOCAL  DEFAULT   11 $x
   115: 0000000000006ea4     0 NOTYPE  LOCAL  DEFAULT   11 $x
   116: 0000000000006eb8     0 NOTYPE  LOCAL  DEFAULT   11 $x
   117: 0000000000006ee8     0 NOTYPE  LOCAL  DEFAULT   11 $x
   118: 0000000000006f10     0 NOTYPE  LOCAL  DEFAULT   11 $x
   119: 0000000000006f24     0 NOTYPE  LOCAL  DEFAULT   11 $x
   120: 0000000000006f84     0 NOTYPE  LOCAL  DEFAULT   11 $x
   121: 0000000000006fac     0 NOTYPE  LOCAL  DEFAULT   11 $x
   122: 00000000000070b4     0 NOTYPE  LOCAL  DEFAULT   11 $x
   123: 0000000000007100     0 NOTYPE  LOCAL  DEFAULT   11 $x
   124: 0000000000007138     0 NOTYPE  LOCAL  DEFAULT   11 $x
   125: 00000000000071a8     0 NOTYPE  LOCAL  DEFAULT   11 $x
   126: 00000000000071bc     0 NOTYPE  LOCAL  DEFAULT   11 $x
   127: 000000000000720c     0 NOTYPE  LOCAL  DEFAULT   11 $x
   128: 0000000000007234     0 NOTYPE  LOCAL  DEFAULT   11 $x
   129: 000000000000725c     0 NOTYPE  LOCAL  DEFAULT   11 $x
   130: 0000000000007270     0 NOTYPE  LOCAL  DEFAULT   11 $x
   131: 00000000000072f0     0 NOTYPE  LOCAL  DEFAULT   11 $x
   132: 000000000000730c     0 NOTYPE  LOCAL  DEFAULT   11 $x
   133: 0000000000007334     0 NOTYPE  LOCAL  DEFAULT   11 $x
   134: 0000000000007364     0 NOTYPE  LOCAL  DEFAULT   11 $x
   135: 0000000000007378     0 NOTYPE  LOCAL  DEFAULT   11 $x
   136: 00000000000073d8     0 NOTYPE  LOCAL  DEFAULT   11 $x
   137: 0000000000007400     0 NOTYPE  LOCAL  DEFAULT   11 $x
   138: 0000000000007414     0 NOTYPE  LOCAL  DEFAULT   11 $x
   139: 0000000000007474     0 NOTYPE  LOCAL  DEFAULT   11 $x
   140: 00000000000074a8     0 NOTYPE  LOCAL  DEFAULT   11 $x
   141: 00000000000074d0     0 NOTYPE  LOCAL  DEFAULT   11 $x
   142: 00000000000074e8     0 NOTYPE  LOCAL  DEFAULT   11 $x
   143: 0000000000007508     0 NOTYPE  LOCAL  DEFAULT   11 $x
   144: 0000000000007540     0 NOTYPE  LOCAL  DEFAULT   11 $x
   145: 0000000000007568     0 NOTYPE  LOCAL  DEFAULT   11 $x
   146: 00000000000075a0     0 NOTYPE  LOCAL  DEFAULT   11 $x
   147: 0000000000007600     0 NOTYPE  LOCAL  DEFAULT   11 $x
   148: 0000000000007630     0 NOTYPE  LOCAL  DEFAULT   11 $x
   149: 0000000000007648     0 NOTYPE  LOCAL  DEFAULT   11 $x
   150: 000000000000767c     0 NOTYPE  LOCAL  DEFAULT   11 $x
   151: 000000000000769c     0 NOTYPE  LOCAL  DEFAULT   11 $x
   152: 00000000000076bc     0 NOTYPE  LOCAL  DEFAULT   11 $x
   153: 00000000000076f0     0 NOTYPE  LOCAL  DEFAULT   11 $x
   154: 0000000000007738     0 NOTYPE  LOCAL  DEFAULT   11 $x
   155: 0000000000007750     0 NOTYPE  LOCAL  DEFAULT   11 $x
   156: 0000000000007764     0 NOTYPE  LOCAL  DEFAULT   11 $x
   157: 0000000000007798     0 NOTYPE  LOCAL  DEFAULT   11 $x
   158: 00000000000077b0     0 NOTYPE  LOCAL  DEFAULT   11 $x
   159: 00000000000077dc     0 NOTYPE  LOCAL  DEFAULT   11 $x
   160: 0000000000007854     0 NOTYPE  LOCAL  DEFAULT   11 $x
   161: 00000000000078b0     0 NOTYPE  LOCAL  DEFAULT   11 $x
   162: 000000000000790c     0 NOTYPE  LOCAL  DEFAULT   11 $x
   163: 0000000000007930     0 NOTYPE  LOCAL  DEFAULT   11 $x
   164: 0000000000007964     0 NOTYPE  LOCAL  DEFAULT   11 $x
   165: 0000000000007990     0 NOTYPE  LOCAL  DEFAULT   11 $x
   166: 00000000000079a4     0 NOTYPE  LOCAL  DEFAULT   11 $x
   167: 0000000000007a30     0 NOTYPE  LOCAL  DEFAULT   11 $x
   168: 0000000000007ab8     0 NOTYPE  LOCAL  DEFAULT   11 $x
   169: 0000000000007ad4     0 NOTYPE  LOCAL  DEFAULT   11 $x
   170: 0000000000007b0c     0 NOTYPE  LOCAL  DEFAULT   11 $x
   171: 0000000000007b24     0 NOTYPE  LOCAL  DEFAULT   11 $x
   172: 0000000000007bb4     0 NOTYPE  LOCAL  DEFAULT   11 $x
   173: 0000000000007be0     0 NOTYPE  LOCAL  DEFAULT   11 $x
   174: 0000000000007c28     0 NOTYPE  LOCAL  DEFAULT   11 $x
   175: 0000000000007c70     0 NOTYPE  LOCAL  DEFAULT   11 $x
   176: 0000000000007cd0     0 NOTYPE  LOCAL  DEFAULT   11 $x
   177: 0000000000007cf0     0 NOTYPE  LOCAL  DEFAULT   11 $x
   178: 0000000000007d50     0 NOTYPE  LOCAL  DEFAULT   11 $x
   179: 0000000000007d68     0 NOTYPE  LOCAL  DEFAULT   11 $x
   180: 0000000000007d9c     0 NOTYPE  LOCAL  DEFAULT   11 $x
   181: 0000000000005e30    96 FUNC    LOCAL  DEFAULT   11 _Z41__static_initialization_and_destruction_0ii
   182: 0000000000005e90    28 FUNC    LOCAL  DEFAULT   11 _GLOBAL__sub_I_nvdsparseseg_Yolo.cpp
   183: 0000000000019d98     0 NOTYPE  LOCAL  DEFAULT   17 $d
   184: 000000000001a428     0 NOTYPE  LOCAL  DEFAULT   22 $d
   185: 00000000000083f0     0 NOTYPE  LOCAL  DEFAULT   15 $d
   186: 0000000000000000     0 FILE    LOCAL  DEFAULT  ABS crtstuff.c
   187: 0000000000009210     0 NOTYPE  LOCAL  DEFAULT   15 $d
   188: 0000000000009210     0 OBJECT  LOCAL  DEFAULT   15 __FRAME_END__
   189: 0000000000000000     0 FILE    LOCAL  DEFAULT  ABS 
   190: 0000000000007eec     0 NOTYPE  LOCAL  DEFAULT   14 __GNU_EH_FRAME_HDR
   191: 000000000001a420     0 OBJECT  LOCAL  DEFAULT   22 __dso_handle
   192: 000000000001a428     8 OBJECT  LOCAL  DEFAULT   22 DW.ref.__gxx_personality_v0
   193: 0000000000007e28     0 FUNC    LOCAL  DEFAULT   12 _fini
   194: 0000000000004cb0     0 FUNC    LOCAL  DEFAULT    9 _init
   195: 0000000000019da8     0 OBJECT  LOCAL  DEFAULT  ABS _DYNAMIC
   196: 000000000001a430     0 OBJECT  LOCAL  DEFAULT   22 __TMC_END__
   197: 0000000000019f98     0 OBJECT  LOCAL  DEFAULT  ABS _GLOBAL_OFFSET_TABLE_
   198: 0000000000004cd0     0 NOTYPE  LOCAL  DEFAULT   10 $x
   199: 0000000000000000     0 FUNC    GLOBAL DEFAULT  UND _Znam@@GLIBCXX_3.4
   200: 00000000000074e8    32 FUNC    WEAK   DEFAULT   11 _ZNKSt6vectorI25NvDsInferInstanceMaskInfoSaIS0_EE8max_sizeEv
   201: 00000000000071a8    20 FUNC    WEAK   DEFAULT   11 _ZNK9__gnu_cxx17__normal_iteratorIP25NvDsInferInstanceMaskInfoSt6vectorIS1_SaIS1_EEE4baseEv
   202: 000000000000730c    40 FUNC    WEAK   DEFAULT   11 _ZN9__gnu_cxx17__normal_iteratorIPK25NvDsInferInstanceMaskInfoSt6vectorIS1_SaIS1_EEEC2ERKS3_
   203: 0000000000000000     0 FUNC    GLOBAL DEFAULT  UND memcpy@@GLIBC_2.17
   204: 0000000000006174     8 FUNC    WEAK   DEFAULT   11 _ZN9__gnu_cxx14__alloc_traitsISaI25NvDsInferInstanceMaskInfoES1_E15_S_always_equalEv
   205: 0000000000007be0    72 FUNC    WEAK   DEFAULT   11 _ZSt4copyIN9__gnu_cxx17__normal_iteratorIPK25NvDsInferInstanceMaskInfoSt6vectorIS2_SaIS2_EEEEPS2_ET0_T_SB_SA_
   206: 0000000000007ab8    28 FUNC    WEAK   DEFAULT   11 _ZNSt16allocator_traitsISaI25NvDsInferInstanceMaskInfoEE8max_sizeERKS1_
   207: 0000000000007c28    72 FUNC    WEAK   DEFAULT   11 _ZSt4copyISt13move_iteratorIP25NvDsInferInstanceMaskInfoES2_ET0_T_S5_S4_
   208: 00000000000075a0    96 FUNC    WEAK   DEFAULT   11 _ZSt32__make_move_if_noexcept_iteratorI25NvDsInferInstanceMaskInfoSt13move_iteratorIPS0_EET0_PT_
   209: 0000000000005f24    40 FUNC    WEAK   DEFAULT   11 _ZNSt12_Vector_baseI25NvDsInferInstanceMaskInfoSaIS0_EE12_Vector_implC2Ev
   210: 0000000000006528    20 FUNC    WEAK   DEFAULT   11 _ZN9__gnu_cxx13new_allocatorI25NvDsInferInstanceMaskInfoED2Ev
   211: 0000000000005f6c    92 FUNC    WEAK   DEFAULT   11 _ZNSt12_Vector_baseI25NvDsInferInstanceMaskInfoSaIS0_EED2Ev
   212: 0000000000006fac   264 FUNC    WEAK   DEFAULT   11 _ZNKSt6vectorI25NvDsInferInstanceMaskInfoSaIS0_EE12_M_check_lenEmPKc
   213: 00000000000064dc    32 FUNC    WEAK   DEFAULT   11 _ZNSaI25NvDsInferInstanceMaskInfoEC1Ev
   214: 0000000000007234    40 FUNC    WEAK   DEFAULT   11 _ZN9__gnu_cxx17__normal_iteratorIPK18NvDsInferLayerInfoSt6vectorIS1_SaIS1_EEEC2ERKS3_
   215: 0000000000005f4c    32 FUNC    WEAK   DEFAULT   11 _ZNSaI25NvDsInferInstanceMaskInfoED2Ev
   216: 000000000000653c    60 FUNC    WEAK   DEFAULT   11 _ZNSt12_Vector_baseI25NvDsInferInstanceMaskInfoSaIS0_EE13_M_deallocateEPS0_m
   217: 0000000000000000     0 FUNC    GLOBAL DEFAULT  UND __stack_chk_fail@@GLIBC_2.17
   218: 00000000000074a8    40 FUNC    WEAK   DEFAULT   11 _ZN9__gnu_cxx13new_allocatorI25NvDsInferInstanceMaskInfoE10deallocateEPS1_m
   219: 00000000000069c4   108 FUNC    WEAK   DEFAULT   11 _ZNKSt6vectorI18NvDsInferLayerInfoSaIS0_EE5beginEv
   220: 0000000000005f24    40 FUNC    WEAK   DEFAULT   11 _ZNSt12_Vector_baseI25NvDsInferInstanceMaskInfoSaIS0_EE12_Vector_implC1Ev
   221: 0000000000000000     0 FUNC    GLOBAL DEFAULT  UND _ZSt17__throw_bad_allocv@@GLIBCXX_3.4
   222: 0000000000007334    48 FUNC    WEAK   DEFAULT   11 _ZSt22__uninitialized_copy_aIN9__gnu_cxx17__normal_iteratorIPK25NvDsInferInstanceMaskInfoSt6vectorIS2_SaIS2_EEEEPS2_S2_ET0_T_SB_SA_RSaIT1_E
   223: 0000000000006bc8    52 FUNC    WEAK   DEFAULT   11 _ZNKSt6vectorI25NvDsInferInstanceMaskInfoSaIS0_EE8capacityEv
   224: 0000000000006bfc   108 FUNC    WEAK   DEFAULT   11 _ZNKSt6vectorI25NvDsInferInstanceMaskInfoSaIS0_EE5beginEv
   225: 00000000000072f0    28 FUNC    WEAK   DEFAULT   11 _ZSt18__do_alloc_on_copyISaI25NvDsInferInstanceMaskInfoEEvRT_RKS2_St17integral_constantIbLb0EE
   226: 0000000000000000     0 FUNC    GLOBAL DEFAULT  UND __cxa_begin_catch@@CXXABI_1.3
   227: 0000000000000000     0 OBJECT  GLOBAL DEFAULT  UND __stack_chk_guard@@GLIBC_2.17
   228: 00000000000060c0   120 FUNC    WEAK   DEFAULT   11 _ZNKSt6vectorI18NvDsInferLayerInfoSaIS0_EE5emptyEv
   229: 0000000000007364    20 FUNC    WEAK   DEFAULT   11 _ZSt12__miter_baseIN9__gnu_cxx17__normal_iteratorIPK25NvDsInferInstanceMaskInfoSt6vectorIS2_SaIS2_EEEEET_S9_
   230: 0000000000007d50    24 FUNC    WEAK   DEFAULT   11 _ZNKSt13move_iteratorIP25NvDsInferInstanceMaskInfoE4baseEv
   231: 0000000000007378    96 FUNC    WEAK   DEFAULT   11 _ZSt14__copy_move_a2ILb0EN9__gnu_cxx17__normal_iteratorIPK25NvDsInferInstanceMaskInfoSt6vectorIS2_SaIS2_EEEENS1_IPS2_S7_EEET1_T0_SC_SB_
   232: 0000000000006f84    40 FUNC    WEAK   DEFAULT   11 _ZN9__gnu_cxx17__normal_iteratorIP25NvDsInferInstanceMaskInfoSt6vectorIS1_SaIS1_EEEC1ERKS2_
   233: 0000000000000000     0 FUNC    GLOBAL DEFAULT  UND _ZSt4endlIcSt11char_traitsIcEERSt13basic_ostreamIT_T0_ES6_@@GLIBCXX_3.4
   234: 00000000000066ac    20 FUNC    WEAK   DEFAULT   11 _ZNSt6vectorI25NvDsInferInstanceMaskInfoSaIS0_EE19_S_nothrow_relocateESt17integral_constantIbLb1EE
   235: 0000000000006b0c    44 FUNC    WEAK   DEFAULT   11 _ZNSt6vectorI25NvDsInferInstanceMaskInfoSaIS0_EE5clearEv
   236: 0000000000007854    92 FUNC    WEAK   DEFAULT   11 _ZN9__gnu_cxx13new_allocatorI25NvDsInferInstanceMaskInfoE8allocateEmPKv
   237: 0000000000007c70    96 FUNC    WEAK   DEFAULT   11 _ZSt14__copy_move_a2ILb0EN9__gnu_cxx17__normal_iteratorIPK25NvDsInferInstanceMaskInfoSt6vectorIS2_SaIS2_EEEEPS2_ET1_T0_SB_SA_
   238: 0000000000000000     0 FUNC    GLOBAL DEFAULT  UND __assert_fail@@GLIBC_2.17
   239: 0000000000000000     0 FUNC    GLOBAL DEFAULT  UND _ZSt20__throw_length_errorPKc@@GLIBCXX_3.4
   240: 0000000000005ec4    32 FUNC    WEAK   DEFAULT   11 _ZNSt12_Vector_baseI25NvDsInferInstanceMaskInfoSaIS0_EE12_Vector_implD2Ev
   241: 00000000000070b4    76 FUNC    WEAK   DEFAULT   11 _ZN9__gnu_cxxmiIP25NvDsInferInstanceMaskInfoSt6vectorIS1_SaIS1_EEEENS_17__normal_iteratorIT_T0_E15difference_typeERKS9_SC_
   242: 0000000000006528    20 FUNC    WEAK   DEFAULT   11 _ZN9__gnu_cxx13new_allocatorI25NvDsInferInstanceMaskInfoED1Ev
   243: 0000000000006a30   108 FUNC    WEAK   DEFAULT   11 _ZNKSt6vectorI18NvDsInferLayerInfoSaIS0_EE3endEv
   244: 0000000000005f6c    92 FUNC    WEAK   DEFAULT   11 _ZNSt12_Vector_baseI25NvDsInferInstanceMaskInfoSaIS0_EED1Ev
   245: 0000000000006f24    96 FUNC    WEAK   DEFAULT   11 _ZN9__gnu_cxx13new_allocatorI25NvDsInferInstanceMaskInfoE9constructIS1_JRKS1_EEEvPT_DpOT0_
   246: 0000000000006654    88 FUNC    WEAK   DEFAULT   11 _ZNSt6vectorI25NvDsInferInstanceMaskInfoSaIS0_EE15_S_use_relocateEv
   247: 0000000000000000     0 FUNC    WEAK   DEFAULT  UND __cxa_finalize@@GLIBC_2.17
   248: 0000000000005fc8    80 FUNC    WEAK   DEFAULT   11 _ZNSt6vectorI25NvDsInferInstanceMaskInfoSaIS0_EED1Ev
   249: 0000000000007540    40 FUNC    WEAK   DEFAULT   11 _ZNSt16allocator_traitsISaI25NvDsInferInstanceMaskInfoEE8allocateERS1_m
   250: 000000000000730c    40 FUNC    WEAK   DEFAULT   11 _ZN9__gnu_cxx17__normal_iteratorIPK25NvDsInferInstanceMaskInfoSt6vectorIS1_SaIS1_EEEC1ERKS3_
   251: 0000000000006138    52 FUNC    WEAK   DEFAULT   11 _ZNKSt6vectorI18NvDsInferLayerInfoSaIS0_EEixEm
   252: 0000000000005ee4    32 FUNC    WEAK   DEFAULT   11 _ZNSt12_Vector_baseI25NvDsInferInstanceMaskInfoSaIS0_EEC2Ev
   253: 0000000000007d68    52 FUNC    WEAK   DEFAULT   11 _ZSt13__copy_move_aILb1EP25NvDsInferInstanceMaskInfoS1_ET1_T0_S3_S2_
   254: 00000000000077dc   120 FUNC    WEAK   DEFAULT   11 _ZNSt6vectorI25NvDsInferInstanceMaskInfoSaIS0_EE11_S_max_sizeERKS1_
   255: 0000000000007ad4    56 FUNC    WEAK   DEFAULT   11 _ZSt3minImERKT_S2_S2_
   256: 0000000000006eb8    48 FUNC    WEAK   DEFAULT   11 _ZNSt16allocator_traitsISaI25NvDsInferInstanceMaskInfoEE10deallocateERS1_PS0_m
   257: 0000000000005604   104 FUNC    GLOBAL DEFAULT   11 _Z5clampfff
   258: 0000000000007270   128 FUNC    WEAK   DEFAULT   11 _ZNSt6vectorI25NvDsInferInstanceMaskInfoSaIS0_EE15_M_erase_at_endEPS0_
   259: 0000000000007798    24 FUNC    WEAK   DEFAULT   11 _ZSt12__niter_wrapIP25NvDsInferInstanceMaskInfoET_RKS2_S2_
   260: 0000000000006cd4   132 FUNC    WEAK   DEFAULT   11 _ZNSt6vectorI25NvDsInferInstanceMaskInfoSaIS0_EE20_M_allocate_and_copyIN9__gnu_cxx17__normal_iteratorIPKS0_S2_EEEEPS0_mT_SA_
   261: 00000000000064dc    32 FUNC    WEAK   DEFAULT   11 _ZNSaI25NvDsInferInstanceMaskInfoEC2Ev
   262: 0000000000006578    20 FUNC    WEAK   DEFAULT   11 _ZNSt12_Vector_baseI25NvDsInferInstanceMaskInfoSaIS0_EE19_M_get_Tp_allocatorEv
   263: 0000000000007990    20 FUNC    WEAK   DEFAULT   11 _ZNK9__gnu_cxx17__normal_iteratorIPK25NvDsInferInstanceMaskInfoSt6vectorIS1_SaIS1_EEE4baseEv
   264: 00000000000074d0    24 FUNC    WEAK   DEFAULT   11 _ZNSt12_Destroy_auxILb1EE9__destroyIP25NvDsInferInstanceMaskInfoEEvT_S4_
   265: 0000000000006ea4    20 FUNC    WEAK   DEFAULT   11 _ZN9__gnu_cxx13new_allocatorI25NvDsInferInstanceMaskInfoEC1Ev
   266: 0000000000006b38    92 FUNC    WEAK   DEFAULT   11 _ZSt15__alloc_on_copyISaI25NvDsInferInstanceMaskInfoEEvRT_RKS2_
   267: 0000000000000000     0 FUNC    GLOBAL DEFAULT  UND _ZdlPv@@GLIBCXX_3.4
   268: 000000000000725c    20 FUNC    WEAK   DEFAULT   11 _ZNK9__gnu_cxx17__normal_iteratorIPK18NvDsInferLayerInfoSt6vectorIS1_SaIS1_EEE4baseEv
   269: 0000000000000000     0 FUNC    GLOBAL DEFAULT  UND _ZStlsISt11char_traitsIcEERSt13basic_ostreamIcT_ES5_PKc@@GLIBCXX_3.4
   270: 0000000000000000     0 FUNC    GLOBAL DEFAULT  UND _Znwm@@GLIBCXX_3.4
   271: 0000000000006040   128 FUNC    WEAK   DEFAULT   11 _ZNSt6vectorI25NvDsInferInstanceMaskInfoSaIS0_EE9push_backERKS0_
   272: 0000000000000000     0 FUNC    GLOBAL DEFAULT  UND _ZNSolsEPFRSoS_E@@GLIBCXX_3.4
   273: 0000000000006f84    40 FUNC    WEAK   DEFAULT   11 _ZN9__gnu_cxx17__normal_iteratorIP25NvDsInferInstanceMaskInfoSt6vectorIS1_SaIS1_EEEC2ERKS2_
   274: 00000000000064fc    44 FUNC    WEAK   DEFAULT   11 _ZNSt12_Vector_baseI25NvDsInferInstanceMaskInfoSaIS0_EE17_Vector_impl_dataC1Ev
   275: 000000000000767c    32 FUNC    WEAK   DEFAULT   11 _ZSt12__niter_baseIPK25NvDsInferInstanceMaskInfoSt6vectorIS0_SaIS0_EEET_N9__gnu_cxx17__normal_iteratorIS6_T0_EE
   276: 0000000000007568    56 FUNC    WEAK   DEFAULT   11 _ZNSt6vectorI25NvDsInferInstanceMaskInfoSaIS0_EE14_S_do_relocateEPS0_S3_S3_RS1_St17integral_constantIbLb1EE
   277: 0000000000007964    44 FUNC    WEAK   DEFAULT   11 _ZNSt20__uninitialized_copyILb1EE13__uninit_copyIN9__gnu_cxx17__normal_iteratorIPK25NvDsInferInstanceMaskInfoSt6vectorIS4_SaIS4_EEEEPS4_EET0_T_SD_SC_
   278: 0000000000006b94    52 FUNC    WEAK   DEFAULT   11 _ZNKSt6vectorI25NvDsInferInstanceMaskInfoSaIS0_EE4sizeEv
   279: 0000000000006e74    48 FUNC    WEAK   DEFAULT   11 _ZSt22__uninitialized_copy_aIP25NvDsInferInstanceMaskInfoS1_S0_ET0_T_S3_S2_RSaIT1_E
   280: 0000000000007414    96 FUNC    WEAK   DEFAULT   11 _ZSt14__copy_move_a2ILb0EP25NvDsInferInstanceMaskInfoS1_ET1_T0_S3_S2_
   281: 0000000000006e00    44 FUNC    WEAK   DEFAULT   11 _ZSt8_DestroyIN9__gnu_cxx17__normal_iteratorIP25NvDsInferInstanceMaskInfoSt6vectorIS2_SaIS2_EEEES2_EvT_S8_RSaIT0_E
   282: 0000000000006af4    24 FUNC    WEAK   DEFAULT   11 _ZStneRKSaI25NvDsInferInstanceMaskInfoES2_
   283: 000000000000616c     8 FUNC    WEAK   DEFAULT   11 _ZN9__gnu_cxx14__alloc_traitsISaI25NvDsInferInstanceMaskInfoES1_E27_S_propagate_on_copy_assignEv
   284: 000000000000617c   864 FUNC    WEAK   DEFAULT   11 _ZNSt6vectorI25NvDsInferInstanceMaskInfoSaIS0_EEaSERKS2_
   285: 0000000000006ee8    40 FUNC    WEAK   DEFAULT   11 _ZSt8_DestroyIP25NvDsInferInstanceMaskInfoEvT_S2_
   286: 0000000000000000     0 FUNC    GLOBAL DEFAULT  UND __cxa_atexit@@GLIBC_2.17
   287: 0000000000005ec4    32 FUNC    WEAK   DEFAULT   11 _ZNSt12_Vector_baseI25NvDsInferInstanceMaskInfoSaIS0_EE12_Vector_implD1Ev
   288: 0000000000005ee4    32 FUNC    WEAK   DEFAULT   11 _ZNSt12_Vector_baseI25NvDsInferInstanceMaskInfoSaIS0_EEC1Ev
   289: 0000000000007100    56 FUNC    WEAK   DEFAULT   11 _ZNSt12_Vector_baseI25NvDsInferInstanceMaskInfoSaIS0_EE11_M_allocateEm
   290: 0000000000007630    24 FUNC    WEAK   DEFAULT   11 _ZN9__gnu_cxx13new_allocatorI25NvDsInferInstanceMaskInfoE7destroyIS1_EEvPT_
   291: 00000000000073d8    40 FUNC    WEAK   DEFAULT   11 _ZSt8_DestroyIN9__gnu_cxx17__normal_iteratorIP25NvDsInferInstanceMaskInfoSt6vectorIS2_SaIS2_EEEEEvT_S8_
   292: 0000000000006db8    72 FUNC    WEAK   DEFAULT   11 _ZSt4copyIN9__gnu_cxx17__normal_iteratorIPK25NvDsInferInstanceMaskInfoSt6vectorIS2_SaIS2_EEEENS1_IPS2_S7_EEET0_T_SC_SB_
   293: 0000000000005fc8    80 FUNC    WEAK   DEFAULT   11 _ZNSt6vectorI25NvDsInferInstanceMaskInfoSaIS0_EED2Ev
   294: 0000000000000000     0 FUNC    GLOBAL DEFAULT  UND memmove@@GLIBC_2.17
   295: 0000000000007474    52 FUNC    WEAK   DEFAULT   11 _ZSt18uninitialized_copyIP25NvDsInferInstanceMaskInfoS1_ET0_T_S3_S2_
   296: 0000000000007508    56 FUNC    WEAK   DEFAULT   11 _ZSt3maxImERKT_S2_S2_
   297: 0000000000007d9c   140 FUNC    WEAK   DEFAULT   11 _ZNSt11__copy_moveILb1ELb1ESt26random_access_iterator_tagE8__copy_mI25NvDsInferInstanceMaskInfoEEPT_PKS4_S7_S5_
   298: 00000000000065b8    56 FUNC    WEAK   DEFAULT   11 _ZNSt16allocator_traitsISaI25NvDsInferInstanceMaskInfoEE9constructIS0_JRKS0_EEEvRS1_PT_DpOT0_
   299: 0000000000007234    40 FUNC    WEAK   DEFAULT   11 _ZN9__gnu_cxx17__normal_iteratorIPK18NvDsInferLayerInfoSt6vectorIS1_SaIS1_EEEC1ERKS3_
   300: 0000000000007138   112 FUNC    WEAK   DEFAULT   11 _ZNSt6vectorI25NvDsInferInstanceMaskInfoSaIS0_EE11_S_relocateEPS0_S3_S3_RS1_
   301: 0000000000006018    40 FUNC    WEAK   DEFAULT   11 _ZNKSt6vectorIfSaIfEEixEm
   302: 0000000000007cf0    96 FUNC    WEAK   DEFAULT   11 _ZSt14__copy_move_a2ILb1EP25NvDsInferInstanceMaskInfoS1_ET1_T0_S3_S2_
   303: 00000000000066c0   772 FUNC    WEAK   DEFAULT   11 _ZNSt6vectorI25NvDsInferInstanceMaskInfoSaIS0_EE17_M_realloc_insertIJRKS0_EEEvN9__gnu_cxx17__normal_iteratorIPS0_S2_EEDpOT_
   304: 00000000000076f0    72 FUNC    WEAK   DEFAULT   11 _ZSt12__niter_wrapIN9__gnu_cxx17__normal_iteratorIP25NvDsInferInstanceMaskInfoSt6vectorIS2_SaIS2_EEEES3_ET_S8_T0_
   305: 0000000000007bb4    44 FUNC    WEAK   DEFAULT   11 _ZNSt20__uninitialized_copyILb1EE13__uninit_copyISt13move_iteratorIP25NvDsInferInstanceMaskInfoES4_EET0_T_S7_S6_
   306: 00000000000056e8    56 FUNC    WEAK   DEFAULT   11 _ZSt3maxIfERKT_S2_S2_
   307: 0000000000005f04    32 FUNC    WEAK   DEFAULT   11 _ZNSt6vectorI25NvDsInferInstanceMaskInfoSaIS0_EEC1Ev
   308: 0000000000006c68   108 FUNC    WEAK   DEFAULT   11 _ZNKSt6vectorI25NvDsInferInstanceMaskInfoSaIS0_EE3endEv
   309: 00000000000077b0    44 FUNC    WEAK   DEFAULT   11 _ZNSt20__uninitialized_copyILb1EE13__uninit_copyIP25NvDsInferInstanceMaskInfoS3_EET0_T_S5_S4_
   310: 0000000000000000     0 FUNC    GLOBAL DEFAULT  UND __cxa_rethrow@@CXXABI_1.3
   311: 0000000000007600    48 FUNC    WEAK   DEFAULT   11 _ZSt22__uninitialized_copy_aISt13move_iteratorIP25NvDsInferInstanceMaskInfoES2_S1_ET0_T_S5_S4_RSaIT1_E
   312: 0000000000005720    56 FUNC    WEAK   DEFAULT   11 _ZSt3minIfERKT_S2_S2_
   313: 00000000000064fc    44 FUNC    WEAK   DEFAULT   11 _ZNSt12_Vector_baseI25NvDsInferInstanceMaskInfoSaIS0_EE17_Vector_impl_dataC2Ev
   314: 000000000000790c    36 FUNC    WEAK   DEFAULT   11 _ZNSt13move_iteratorIP25NvDsInferInstanceMaskInfoEC2ES1_
   315: 0000000000006f10    20 FUNC    WEAK   DEFAULT   11 _ZSt7forwardIRK25NvDsInferInstanceMaskInfoEOT_RNSt16remove_referenceIS3_E4typeE
   316: 0000000000000000     0 FUNC    GLOBAL DEFAULT  UND _ZNSt8ios_base4InitC1Ev@@GLIBCXX_3.4
   317: 000000000000720c    40 FUNC    WEAK   DEFAULT   11 _ZNSt16allocator_traitsISaI25NvDsInferInstanceMaskInfoEE7destroyIS0_EEvRS1_PT_
   318: 0000000000006ea4    20 FUNC    WEAK   DEFAULT   11 _ZN9__gnu_cxx13new_allocatorI25NvDsInferInstanceMaskInfoEC2Ev
   319: 0000000000005dd4    56 FUNC    GLOBAL DEFAULT   11 NvDsInferParseYoloSeg
   320: 0000000000007738    24 FUNC    WEAK   DEFAULT   11 _ZNSt12_Destroy_auxILb1EE9__destroyIN9__gnu_cxx17__normal_iteratorIP25NvDsInferInstanceMaskInfoSt6vectorIS4_SaIS4_EEEEEEvT_SA_
   321: 0000000000005f04    32 FUNC    WEAK   DEFAULT   11 _ZNSt6vectorI25NvDsInferInstanceMaskInfoSaIS0_EEC2Ev
   322: 0000000000005eac    24 FUNC    WEAK   DEFAULT   11 _ZnwmPv
   323: 0000000000000000     0 FUNC    GLOBAL DEFAULT  UND __cxa_end_catch@@CXXABI_1.3
   324: 0000000000000000     0 FUNC    GLOBAL DEFAULT  UND __gxx_personality_v0@@CXXABI_1.3
   325: 0000000000007a30   136 FUNC    WEAK   DEFAULT   11 _ZNK9__gnu_cxx17__normal_iteratorIP25NvDsInferInstanceMaskInfoSt6vectorIS1_SaIS1_EEEplEl
   326: 0000000000007930    52 FUNC    WEAK   DEFAULT   11 _ZSt18uninitialized_copyISt13move_iteratorIP25NvDsInferInstanceMaskInfoES2_ET0_T_S5_S4_
   327: 0000000000006d58    96 FUNC    WEAK   DEFAULT   11 _ZNSt6vectorI25NvDsInferInstanceMaskInfoSaIS0_EE5beginEv
   328: 0000000000006a9c    68 FUNC    WEAK   DEFAULT   11 _ZN9__gnu_cxxeqIPK18NvDsInferLayerInfoSt6vectorIS1_SaIS1_EEEEbRKNS_17__normal_iteratorIT_T0_EESC_
   329: 0000000000006e2c    72 FUNC    WEAK   DEFAULT   11 _ZSt4copyIP25NvDsInferInstanceMaskInfoS1_ET0_T_S3_S2_
   330: 00000000000078b0    92 FUNC    WEAK   DEFAULT   11 _ZSt12__relocate_aIP25NvDsInferInstanceMaskInfoS1_SaIS0_EET0_T_S4_S3_RT1_
   331: 000000000000658c    44 FUNC    WEAK   DEFAULT   11 _ZSt8_DestroyIP25NvDsInferInstanceMaskInfoS0_EvT_S2_RSaIT0_E
   332: 00000000000076bc    52 FUNC    WEAK   DEFAULT   11 _ZSt13__copy_move_aILb0EPK25NvDsInferInstanceMaskInfoPS0_ET1_T0_S5_S4_
   333: 0000000000006ae0    20 FUNC    WEAK   DEFAULT   11 _ZNKSt12_Vector_baseI25NvDsInferInstanceMaskInfoSaIS0_EE19_M_get_Tp_allocatorEv
   334: 0000000000000000     0 NOTYPE  WEAK   DEFAULT  UND _ITM_deregisterTMCloneTable
   335: 000000000000769c    32 FUNC    WEAK   DEFAULT   11 _ZSt12__niter_baseIP25NvDsInferInstanceMaskInfoSt6vectorIS0_SaIS0_EEET_N9__gnu_cxx17__normal_iteratorIS5_T0_EE
   336: 0000000000000000     0 FUNC    GLOBAL DEFAULT  UND _Unwind_Resume@@GCC_3.0
   337: 00000000000065f0   100 FUNC    WEAK   DEFAULT   11 _ZNSt6vectorI25NvDsInferInstanceMaskInfoSaIS0_EE3endEv
   338: 0000000000007b0c    24 FUNC    WEAK   DEFAULT   11 _ZNK9__gnu_cxx13new_allocatorI25NvDsInferInstanceMaskInfoE8max_sizeEv
   339: 0000000000007648    52 FUNC    WEAK   DEFAULT   11 _ZSt18uninitialized_copyIN9__gnu_cxx17__normal_iteratorIPK25NvDsInferInstanceMaskInfoSt6vectorIS2_SaIS2_EEEEPS2_ET0_T_SB_SA_
   340: 0000000000007b24   144 FUNC    WEAK   DEFAULT   11 _ZSt14__relocate_a_1I25NvDsInferInstanceMaskInfoS0_ENSt9enable_ifIXsrSt24__is_bitwise_relocatableIT_vE5valueEPS3_E4typeES5_S5_S5_RSaIT0_E
   341: 0000000000007764    52 FUNC    WEAK   DEFAULT   11 _ZSt13__copy_move_aILb0EP25NvDsInferInstanceMaskInfoS1_ET1_T0_S3_S2_
   342: 0000000000005f4c    32 FUNC    WEAK   DEFAULT   11 _ZNSaI25NvDsInferInstanceMaskInfoED1Ev
   343: 0000000000007750    20 FUNC    WEAK   DEFAULT   11 _ZSt12__niter_baseIP25NvDsInferInstanceMaskInfoET_S2_
   344: 00000000000071bc    80 FUNC    WEAK   DEFAULT   11 _ZSt34__uninitialized_move_if_noexcept_aIP25NvDsInferInstanceMaskInfoS1_SaIS0_EET0_T_S4_S3_RT1_
   345: 0000000000007400    20 FUNC    WEAK   DEFAULT   11 _ZSt12__miter_baseIP25NvDsInferInstanceMaskInfoET_S2_
   346: 000000000000790c    36 FUNC    WEAK   DEFAULT   11 _ZNSt13move_iteratorIP25NvDsInferInstanceMaskInfoEC1ES1_
   347: 0000000000000000     0 NOTYPE  WEAK   DEFAULT  UND __gmon_start__
   348: 0000000000000000     0 NOTYPE  WEAK   DEFAULT  UND _ITM_registerTMCloneTable
   349: 00000000000079a4   140 FUNC    WEAK   DEFAULT   11 _ZNSt11__copy_moveILb0ELb1ESt26random_access_iterator_tagE8__copy_mI25NvDsInferInstanceMaskInfoEEPT_PKS4_S7_S5_
   350: 0000000000000000     0 OBJECT  GLOBAL DEFAULT  UND _ZSt4cerr@@GLIBCXX_3.4
   351: 0000000000007cd0    32 FUNC    WEAK   DEFAULT   11 _ZSt12__miter_baseIP25NvDsInferInstanceMaskInfoEDTcl12__miter_basecldtfp_4baseEEESt13move_iteratorIT_E
   352: 0000000000000000     0 FUNC    GLOBAL DEFAULT  UND _ZNSt8ios_base4InitD1Ev@@GLIBCXX_3.4
